target datalayout = "e-m:e-p270:32:32-p271:32:32-p272:64:64-i64:64-i128:128-f80:128-n8:16:32:64-S128"
target triple = "x86_64-pc-linux-gnu"

%struct.ossl_param_st = type { ptr, i32, ptr, i64, i64 }
%struct.anon = type { i64, [20 x i8] }

@.str.17 = private unnamed_addr constant [34 x i8] c"../openssl/test/params_api_test.c\00", align 1
@.str.18 = private unnamed_addr constant [29 x i8] c"test_param_type_null(&param)\00", align 1
@.str.19 = private unnamed_addr constant [2 x i8] c"1\00", align 1
@.str.22 = private unnamed_addr constant [20 x i8] c"raw_values[n].value\00", align 1
@.str.31 = private unnamed_addr constant [4 x i8] c"buf\00", align 1
@.str.56 = private unnamed_addr constant [29 x i8] c"OSSL_PARAM_set_BN(&param, b)\00", align 1
@.str.57 = private unnamed_addr constant [30 x i8] c"OSSL_PARAM_get_BN(&param, &c)\00", align 1
@.str.58 = private unnamed_addr constant [2 x i8] c"b\00", align 1
@.str.59 = private unnamed_addr constant [2 x i8] c"c\00", align 1
@__const.test_param_signed_bignum.param = private unnamed_addr constant { ptr, i32, [4 x i8], ptr, i64, i64 } { ptr @.str.54, i32 1, [4 x i8] zeroinitializer, ptr null, i64 0, i64 -1 }, align 8
@.str.60 = private unnamed_addr constant [60 x i8] c"b = BN_signed_lebin2bn(raw_values[n].value, (int)len, NULL)\00", align 1
@.str.61 = private unnamed_addr constant [60 x i8] c"!!(raw_values[n].value[len - 1] & 0x80) ^ BN_is_negative(b)\00", align 1
@stderr = external global ptr, align 8

; Function Attrs: nounwind uwtable
define internal void @le_copy(ptr noundef %0, i64 noundef %1, ptr noundef %2, i64 noundef %3) #0 {
  %5 = alloca ptr, align 8
  %6 = alloca i64, align 8
  %7 = alloca ptr, align 8
  %8 = alloca i64, align 8
  %9 = alloca i32, align 4
  store ptr %0, ptr %5, align 8, !tbaa !29
  store i64 %1, ptr %6, align 8, !tbaa !11
  store ptr %2, ptr %7, align 8, !tbaa !27
  store i64 %3, ptr %8, align 8, !tbaa !11
  call void @llvm.lifetime.start.p0(i64 4, ptr %9) #5
  store i32 1, ptr %9, align 4, !tbaa !4
  %10 = load ptr, ptr %5, align 8, !tbaa !29
  %11 = load ptr, ptr %7, align 8, !tbaa !27
  %12 = load i64, ptr %6, align 8, !tbaa !11
  call void @llvm.memcpy.p0.p0.i64(ptr align 1 %10, ptr align 1 %11, i64 %12, i1 false)
  call void @llvm.lifetime.end.p0(i64 4, ptr %9) #5
  ret void
}

; Function Attrs: nounwind uwtable
define internal i32 @test_param_signed_bignum(i32 noundef %0) #0 {
  %2 = alloca i32, align 4
  %3 = alloca i32, align 4
  %4 = alloca [20 x i8], align 16
  %5 = alloca [20 x i8], align 16
  %6 = alloca i64, align 8
  %7 = alloca ptr, align 8
  %8 = alloca ptr, align 8
  %9 = alloca %struct.ossl_param_st, align 8
  %10 = alloca i32, align 4
  %11 = alloca i32, align 4
  store i32 %0, ptr %3, align 4, !tbaa !4
  call void @llvm.lifetime.start.p0(i64 20, ptr %4) #5
  call void @llvm.lifetime.start.p0(i64 20, ptr %5) #5
  call void @llvm.lifetime.start.p0(i64 8, ptr %6) #5
  %12 = load i32, ptr %3, align 4, !tbaa !4
  %13 = sext i32 %12 to i64
  %14 = getelementptr inbounds [14 x %struct.anon], ptr @raw_values, i64 0, i64 %13
  %15 = getelementptr inbounds nuw %struct.anon, ptr %14, i32 0, i32 0
  %16 = load i64, ptr %15, align 16, !tbaa !8
  store i64 %16, ptr %6, align 8, !tbaa !11
  call void @llvm.lifetime.start.p0(i64 8, ptr %7) #5
  store ptr null, ptr %7, align 8, !tbaa !16
  call void @llvm.lifetime.start.p0(i64 8, ptr %8) #5
  store ptr null, ptr %8, align 8, !tbaa !16
  call void @llvm.lifetime.start.p0(i64 40, ptr %9) #5
  call void @llvm.memcpy.p0.p0.i64(ptr align 8 %9, ptr align 8 @__const.test_param_signed_bignum.param, i64 40, i1 false)
  call void @llvm.lifetime.start.p0(i64 4, ptr %10) #5
  store i32 0, ptr %10, align 4, !tbaa !4
  %17 = call i32 @test_param_type_null(ptr noundef %9)
  %18 = call i32 @test_int_eq(ptr noundef @.str.17, i32 noundef 537, ptr noundef @.str.18, ptr noundef @.str.19, i32 noundef %17, i32 noundef 1)
  %19 = icmp ne i32 %18, 0
  br i1 %19, label %21, label %20

20:                                               ; preds = %1
  store i32 0, ptr %2, align 4
  store i32 1, ptr %11, align 4
  br label %105

21:                                               ; preds = %1
  %22 = getelementptr inbounds [20 x i8], ptr %5, i64 0, i64 0
  %23 = getelementptr inbounds nuw %struct.ossl_param_st, ptr %9, i32 0, i32 2
  store ptr %22, ptr %23, align 8, !tbaa !12
  %24 = getelementptr inbounds nuw %struct.ossl_param_st, ptr %9, i32 0, i32 3
  store i64 20, ptr %24, align 8, !tbaa !18
  %25 = load i32, ptr %3, align 4, !tbaa !4
  %26 = sext i32 %25 to i64
  %27 = getelementptr inbounds [14 x %struct.anon], ptr @raw_values, i64 0, i64 %26
  %28 = getelementptr inbounds nuw %struct.anon, ptr %27, i32 0, i32 1
  %29 = getelementptr inbounds [20 x i8], ptr %28, i64 0, i64 0
  %30 = load i64, ptr %6, align 8, !tbaa !11
  %31 = trunc i64 %30 to i32
  %32 = call ptr @BN_signed_lebin2bn(ptr noundef %29, i32 noundef %31, ptr noundef null)
  store ptr %32, ptr %7, align 8, !tbaa !16
  %33 = call i32 @test_ptr(ptr noundef @.str.17, i32 noundef 543, ptr noundef @.str.60, ptr noundef %32)
  %34 = icmp ne i32 %33, 0
  br i1 %34, label %36, label %35

35:                                               ; preds = %21
  br label %101

36:                                               ; preds = %21
  %37 = load i32, ptr %3, align 4, !tbaa !4
  %38 = sext i32 %37 to i64
  %39 = getelementptr inbounds [14 x %struct.anon], ptr @raw_values, i64 0, i64 %38
  %40 = getelementptr inbounds nuw %struct.anon, ptr %39, i32 0, i32 1
  %41 = load i64, ptr %6, align 8, !tbaa !11
  %42 = sub i64 %41, 1
  %43 = getelementptr inbounds nuw [20 x i8], ptr %40, i64 0, i64 %42
  %44 = load i8, ptr %43, align 1, !tbaa !20
  %45 = zext i8 %44 to i32
  %46 = and i32 %45, 128
  %47 = icmp ne i32 %46, 0
  %48 = xor i1 %47, true
  %49 = xor i1 %48, true
  %50 = zext i1 %49 to i32
  %51 = load ptr, ptr %7, align 8, !tbaa !16
  %52 = call i32 @BN_is_negative(ptr noundef %51)
  %53 = xor i32 %50, %52
  %54 = icmp ne i32 %53, 0
  %55 = zext i1 %54 to i32
  %56 = call i32 @test_false(ptr noundef @.str.17, i32 noundef 547, ptr noundef @.str.61, i32 noundef %55)
  %57 = icmp ne i32 %56, 0
  br i1 %57, label %59, label %58

58:                                               ; preds = %36
  br label %101

59:                                               ; preds = %36
  %60 = load ptr, ptr %7, align 8, !tbaa !16
  %61 = call i32 @OSSL_PARAM_set_BN(ptr noundef %9, ptr noundef %60)
  %62 = icmp ne i32 %61, 0
  %63 = zext i1 %62 to i32
  %64 = call i32 @test_true(ptr noundef @.str.17, i32 noundef 549, ptr noundef @.str.56, i32 noundef %63)
  %65 = icmp ne i32 %64, 0
  br i1 %65, label %67, label %66

66:                                               ; preds = %59
  br label %101

67:                                               ; preds = %59
  %68 = getelementptr inbounds [20 x i8], ptr %4, i64 0, i64 0
  %69 = load i64, ptr %6, align 8, !tbaa !11
  %70 = getelementptr inbounds [20 x i8], ptr %5, i64 0, i64 0
  call void @le_copy(ptr noundef %68, i64 noundef %69, ptr noundef %70, i64 noundef 20)
  %71 = load i32, ptr %3, align 4, !tbaa !4
  %72 = sext i32 %71 to i64
  %73 = getelementptr inbounds [14 x %struct.anon], ptr @raw_values, i64 0, i64 %72
  %74 = getelementptr inbounds nuw %struct.anon, ptr %73, i32 0, i32 1
  %75 = getelementptr inbounds [20 x i8], ptr %74, i64 0, i64 0
  %76 = load i64, ptr %6, align 8, !tbaa !11
  %77 = getelementptr inbounds [20 x i8], ptr %4, i64 0, i64 0
  %78 = load i64, ptr %6, align 8, !tbaa !11
  %79 = call i32 @test_mem_eq(ptr noundef @.str.17, i32 noundef 552, ptr noundef @.str.22, ptr noundef @.str.31, ptr noundef %75, i64 noundef %76, ptr noundef %77, i64 noundef %78)
  %80 = icmp ne i32 %79, 0
  br i1 %80, label %82, label %81

81:                                               ; preds = %67
  br label %101

82:                                               ; preds = %67
  %83 = getelementptr inbounds nuw %struct.ossl_param_st, ptr %9, i32 0, i32 4
  %84 = load i64, ptr %83, align 8, !tbaa !19
  %85 = getelementptr inbounds nuw %struct.ossl_param_st, ptr %9, i32 0, i32 3
  store i64 %84, ptr %85, align 8, !tbaa !18
  %86 = call i32 @OSSL_PARAM_get_BN(ptr noundef %9, ptr noundef %8)
  %87 = icmp ne i32 %86, 0
  %88 = zext i1 %87 to i32
  %89 = call i32 @test_true(ptr noundef @.str.17, i32 noundef 555, ptr noundef @.str.57, i32 noundef %88)
  %90 = icmp ne i32 %89, 0
  br i1 %90, label %91, label %96

91:                                               ; preds = %82
  %92 = load ptr, ptr %7, align 8, !tbaa !16
  %93 = load ptr, ptr %8, align 8, !tbaa !16
  %94 = call i32 @test_BN_eq(ptr noundef @.str.17, i32 noundef 556, ptr noundef @.str.58, ptr noundef @.str.59, ptr noundef %92, ptr noundef %93)
  %95 = icmp ne i32 %94, 0
  br i1 %95, label %100, label %96

96:                                               ; preds = %91, %82
  %97 = load ptr, ptr @stderr, align 8, !tbaa !21
  %98 = load ptr, ptr %8, align 8, !tbaa !16
  %99 = call i32 @BN_print_fp(ptr noundef %97, ptr noundef %98)
  br label %101

100:                                              ; preds = %91
  store i32 1, ptr %10, align 4, !tbaa !4
  br label %101

101:                                              ; preds = %100, %96, %81, %66, %58, %35
  %102 = load ptr, ptr %7, align 8, !tbaa !16
  call void @BN_free(ptr noundef %102)
  %103 = load ptr, ptr %8, align 8, !tbaa !16
  call void @BN_free(ptr noundef %103)
  %104 = load i32, ptr %10, align 4, !tbaa !4
  store i32 %104, ptr %2, align 4
  store i32 1, ptr %11, align 4
  br label %105

105:                                              ; preds = %101, %20
  call void @llvm.lifetime.end.p0(i64 4, ptr %10) #5
  call void @llvm.lifetime.end.p0(i64 40, ptr %9) #5
  call void @llvm.lifetime.end.p0(i64 8, ptr %8) #5
  call void @llvm.lifetime.end.p0(i64 8, ptr %7) #5
  call void @llvm.lifetime.end.p0(i64 8, ptr %6) #5
  call void @llvm.lifetime.end.p0(i64 20, ptr %5) #5
  call void @llvm.lifetime.end.p0(i64 20, ptr %4) #5
  %106 = load i32, ptr %2, align 4
  ret i32 %106
}