; Function Attrs: nounwind uwtable
define internal range(i32 0, 2) i32 @test_param_signed_bignum(i32 noundef %0) #0 {
  %2 = alloca [20 x i8], align 16
  %3 = alloca [20 x i8], align 16
  %4 = alloca ptr, align 8
  %5 = alloca %struct.ossl_param_st, align 8
  call void @llvm.lifetime.start.p0(i64 20, ptr nonnull %2) #5
  call void @llvm.lifetime.start.p0(i64 20, ptr nonnull %3) #5
  %6 = sext i32 %0 to i64
  %7 = getelementptr inbounds [14 x %struct.anon], ptr @raw_values, i64 0, i64 %6
  %8 = load i64, ptr %7, align 16, !tbaa !4
  call void @llvm.lifetime.start.p0(i64 8, ptr nonnull %4) #5
  store ptr null, ptr %4, align 8, !tbaa !16
  call void @llvm.lifetime.start.p0(i64 40, ptr nonnull %5) #5
  call void @llvm.memcpy.p0.p0.i64(ptr noundef nonnull align 8 dereferenceable(40) %5, ptr noundef nonnull align 8 dereferenceable(40) @__const.test_param_signed_bignum.param, i64 40, i1 false)
  %9 = call fastcc i32 @test_param_type_null(ptr noundef %5)
  %10 = call i32 @test_int_eq(ptr noundef nonnull @.str.17, i32 noundef 537, ptr noundef nonnull @.str.18, ptr noundef nonnull @.str.19, i32 noundef %9, i32 noundef 1) #5
  %.not = icmp eq i32 %10, 0
  br i1 %.not, label %50, label %11

11:                                               ; preds = %1
  %12 = getelementptr inbounds nuw i8, ptr %5, i64 16
  store ptr %3, ptr %12, align 8, !tbaa !9
  %13 = getelementptr inbounds nuw i8, ptr %5, i64 24
  store i64 20, ptr %13, align 8, !tbaa !18
  %14 = getelementptr inbounds nuw i8, ptr %7, i64 8
  %15 = trunc i64 %8 to i32
  %16 = call ptr @BN_signed_lebin2bn(ptr noundef nonnull %14, i32 noundef %15, ptr noundef null) #5
  %17 = call i32 @test_ptr(ptr noundef nonnull @.str.17, i32 noundef 543, ptr noundef nonnull @.str.60, ptr noundef %16) #5
  %.not15 = icmp eq i32 %17, 0
  br i1 %.not15, label %48, label %18

18:                                               ; preds = %11
  %19 = add i64 %8, -1
  %20 = getelementptr inbounds nuw [20 x i8], ptr %14, i64 0, i64 %19
  %21 = load i8, ptr %20, align 1, !tbaa !20
  %.lobit = lshr i8 %21, 7
  %22 = zext nneg i8 %.lobit to i32
  %23 = call i32 @BN_is_negative(ptr noundef %16) #5
  %24 = icmp ne i32 %23, %22
  %25 = zext i1 %24 to i32
  %26 = call i32 @test_false(ptr noundef nonnull @.str.17, i32 noundef 547, ptr noundef nonnull @.str.61, i32 noundef %25) #5
  %.not16 = icmp eq i32 %26, 0
  br i1 %.not16, label %48, label %27

27:                                               ; preds = %18
  %28 = call i32 @OSSL_PARAM_set_BN(ptr noundef nonnull %5, ptr noundef %16) #5
  %29 = icmp ne i32 %28, 0
  %30 = zext i1 %29 to i32
  %31 = call i32 @test_true(ptr noundef nonnull @.str.17, i32 noundef 549, ptr noundef nonnull @.str.56, i32 noundef %30) #5
  %.not17 = icmp eq i32 %31, 0
  br i1 %.not17, label %48, label %32

32:                                               ; preds = %27
  call void @llvm.memcpy.p0.p0.i64(ptr nonnull align 16 %2, ptr nonnull readonly align 16 %3, i64 %8, i1 false)
  %33 = call i32 @test_mem_eq(ptr noundef nonnull @.str.17, i32 noundef 552, ptr noundef nonnull @.str.22, ptr noundef nonnull @.str.31, ptr noundef nonnull %14, i64 noundef %8, ptr noundef nonnull %2, i64 noundef %8) #5
  %.not18 = icmp eq i32 %33, 0
  br i1 %.not18, label %48, label %34

34:                                               ; preds = %32
  %35 = getelementptr inbounds nuw i8, ptr %5, i64 32
  %36 = load i64, ptr %35, align 8, !tbaa !19
  store i64 %36, ptr %13, align 8, !tbaa !18
  %37 = call i32 @OSSL_PARAM_get_BN(ptr noundef nonnull %5, ptr noundef nonnull %4) #5
  %38 = icmp ne i32 %37, 0
  %39 = zext i1 %38 to i32
  %40 = call i32 @test_true(ptr noundef nonnull @.str.17, i32 noundef 555, ptr noundef nonnull @.str.57, i32 noundef %39) #5
  %.not19 = icmp eq i32 %40, 0
  br i1 %.not19, label %44, label %41

41:                                               ; preds = %34
  %42 = load ptr, ptr %4, align 8, !tbaa !16
  %43 = call i32 @test_BN_eq(ptr noundef nonnull @.str.17, i32 noundef 556, ptr noundef nonnull @.str.58, ptr noundef nonnull @.str.59, ptr noundef %16, ptr noundef %42) #5
  %.not20 = icmp eq i32 %43, 0
  br i1 %.not20, label %44, label %48

44:                                               ; preds = %41, %34
  %45 = load ptr, ptr @stderr, align 8, !tbaa !21
  %46 = load ptr, ptr %4, align 8, !tbaa !16
  %47 = call i32 @BN_print_fp(ptr noundef %45, ptr noundef %46) #5
  br label %48

48:                                               ; preds = %41, %32, %27, %18, %11, %44
  %.0 = phi i32 [ 0, %44 ], [ 0, %32 ], [ 0, %27 ], [ 0, %18 ], [ 0, %11 ], [ 1, %41 ]
  call void @BN_free(ptr noundef %16) #5
  %49 = load ptr, ptr %4, align 8, !tbaa !16
  call void @BN_free(ptr noundef %49) #5
  br label %50

50:                                               ; preds = %1, %48
  %.014 = phi i32 [ %.0, %48 ], [ 0, %1 ]
  call void @llvm.lifetime.end.p0(i64 40, ptr nonnull %5) #5
  call void @llvm.lifetime.end.p0(i64 8, ptr nonnull %4) #5
  call void @llvm.lifetime.end.p0(i64 20, ptr nonnull %3) #5
  call void @llvm.lifetime.end.p0(i64 20, ptr nonnull %2) #5
  ret i32 %.014
}